target datalayout = "e-m:e-p270:32:32-p271:32:32-p272:64:64-i64:64-i128:128-f80:128-n8:16:32:64-S128"
target triple = "x86_64-pc-linux-gnu"

@mtp3_standard = hidden global i32 1, align 4
@itu_pc_structure = internal global i32 1, align 4
@japan_pc_structure = internal global i32 1, align 4

; Function Attrs: nounwind null_pointer_is_valid sspstrong uwtable
define hidden zeroext i1 @mtp3_pc_structured() #4 {
  %1 = alloca i1, align 1
  %2 = load i32, ptr @mtp3_standard, align 4
  %3 = icmp eq i32 %2, 1
  br i1 %3, label %4, label %8

4:                                                ; preds = %0
  %5 = load i32, ptr @itu_pc_structure, align 4
  %6 = icmp eq i32 %5, 1
  br i1 %6, label %7, label %8

7:                                                ; preds = %4
  store i1 false, ptr %1, align 1
  br label %16

8:                                                ; preds = %4, %0
  %9 = load i32, ptr @mtp3_standard, align 4
  %10 = icmp eq i32 %9, 4
  br i1 %10, label %11, label %15

11:                                               ; preds = %8
  %12 = load i32, ptr @japan_pc_structure, align 4
  %13 = icmp eq i32 %12, 1
  br i1 %13, label %14, label %15

14:                                               ; preds = %11
  store i1 false, ptr %1, align 1
  br label %16

15:                                               ; preds = %11, %8
  store i1 true, ptr %1, align 1
  br label %16

16:                                               ; preds = %15, %14, %7
  %17 = load i1, ptr %1, align 1
  ret i1 %17
}