; Function Attrs: mustprogress nofree norecurse nosync nounwind null_pointer_is_valid sspstrong willreturn memory(read, argmem: none, inaccessiblemem: none) uwtable
define hidden zeroext i1 @mtp3_pc_structured() local_unnamed_addr #4 {
  %1 = load i32, ptr @mtp3_standard, align 4
  %2 = icmp eq i32 %1, 1
  %3 = load i32, ptr @itu_pc_structure, align 4
  %4 = icmp eq i32 %3, 1
  %or.cond = select i1 %2, i1 %4, i1 false
  br i1 %or.cond, label %9, label %5

5:                                                ; preds = %0
  %6 = icmp ne i32 %1, 4
  %7 = load i32, ptr @japan_pc_structure, align 4
  %8 = icmp ne i32 %7, 1
  %or.cond3.not = select i1 %6, i1 true, i1 %8
  br label %9

9:                                                ; preds = %5, %0
  %.0 = phi i1 [ false, %0 ], [ %or.cond3.not, %5 ]
  ret i1 %.0
}